target datalayout = "e-m:e-p270:32:32-p271:32:32-p272:64:64-i64:64-i128:128-f80:128-n8:16:32:64-S128"
target triple = "x86_64-pc-linux-gnu"

%"class.fmt::v11::basic_string_view" = type { ptr, i64 }
%"class.std::system_error" = type { %"class.std::runtime_error", %"class.std::error_code" }
%"class.std::runtime_error" = type { %"class.std::exception", %"struct.std::__cow_string" }
%"class.std::exception" = type { ptr }
%"struct.std::__cow_string" = type { %union.anon }
%union.anon = type { ptr }
%"class.std::error_code" = type { i32, ptr }
%"class.fmt::v11::file" = type { i32 }
%"struct.fmt::v11::fstring.26" = type { %"class.fmt::v11::basic_string_view" }
%struct.FMT_COMPILE_STRING.27 = type { i8 }
%class.anon.28 = type { i8 }

@_ZTISt12system_error = external constant ptr
@.str.52 = private unnamed_addr constant [42 x i8] c"cannot duplicate file descriptor {} to {}\00", align 1
@__const.fstring.sv.67 = private unnamed_addr constant %"class.fmt::v11::basic_string_view" { ptr @.str.52, i64 41 }, align 8

; Function Attrs: mustprogress nounwind uwtable
define linkonce_odr hidden void @_ZN3fmt3v1117basic_string_viewIcEC2EPKcm(ptr noundef nonnull align 8 dereferenceable(16) %0, ptr noundef %1, i64 noundef %2) unnamed_addr #0 comdat align 2 {
  %4 = alloca ptr, align 8
  %5 = alloca ptr, align 8
  %6 = alloca i64, align 8
  store ptr %0, ptr %4, align 8, !tbaa !127
  store ptr %1, ptr %5, align 8, !tbaa !14
  store i64 %2, ptr %6, align 8, !tbaa !25
  %7 = load ptr, ptr %4, align 8
  %8 = getelementptr inbounds nuw %"class.fmt::v11::basic_string_view", ptr %7, i32 0, i32 0
  %9 = load ptr, ptr %5, align 8, !tbaa !14
  store ptr %9, ptr %8, align 8, !tbaa !129
  %10 = getelementptr inbounds nuw %"class.fmt::v11::basic_string_view", ptr %7, i32 0, i32 1
  %11 = load i64, ptr %6, align 8, !tbaa !25
  store i64 %11, ptr %10, align 8, !tbaa !131
  ret void
}

; Function Attrs: mustprogress nounwind uwtable
define linkonce_odr hidden noundef i32 @_ZNSt11char_traitsIcE11to_int_typeERKc(ptr noundef nonnull align 1 dereferenceable(1) %0) #0 comdat align 2 {
  %2 = alloca ptr, align 8
  store ptr %0, ptr %2, align 8, !tbaa !14
  %3 = load ptr, ptr %2, align 8, !tbaa !14
  %4 = load i8, ptr %3, align 1, !tbaa !132
  %5 = zext i8 %4 to i32
  ret i32 %5
}

; Function Attrs: mustprogress nounwind uwtable
define linkonce_odr hidden { ptr, i64 } @_ZN3fmt3v116detail22compile_string_to_viewIcLm42EEENS0_17basic_string_viewIT_EERAT0__KS4_(ptr noundef nonnull align 1 dereferenceable(42) %0) #0 comdat {
  %2 = alloca %"class.fmt::v11::basic_string_view", align 8
  %3 = alloca ptr, align 8
  store ptr %0, ptr %3, align 8, !tbaa !14
  %4 = load ptr, ptr %3, align 8, !tbaa !14
  %5 = getelementptr inbounds [42 x i8], ptr %4, i64 0, i64 0
  %6 = load ptr, ptr %3, align 8, !tbaa !14
  %7 = getelementptr inbounds nuw [42 x i8], ptr %6, i64 0, i64 41
  %8 = call noundef i32 @_ZNSt11char_traitsIcE11to_int_typeERKc(ptr noundef nonnull align 1 dereferenceable(1) %7) #27
  %9 = icmp eq i32 %8, 0
  %10 = select i1 %9, i32 1, i32 0
  %11 = sext i32 %10 to i64
  %12 = sub i64 42, %11
  call void @_ZN3fmt3v1117basic_string_viewIcEC2EPKcm(ptr noundef nonnull align 8 dereferenceable(16) %2, ptr noundef %5, i64 noundef %12) #27
  %13 = load { ptr, i64 }, ptr %2, align 8
  ret { ptr, i64 } %13
}

; Function Attrs: mustprogress nounwind uwtable
define linkonce_odr hidden void @_ZN3fmt3v116detail13ignore_unusedIJiEEEvDpRKT_(ptr noundef nonnull align 4 dereferenceable(4) %0) #0 comdat {
  %2 = alloca ptr, align 8
  store ptr %0, ptr %2, align 8, !tbaa !60
  ret void
}

; Function Attrs: mustprogress nounwind uwtable
define linkonce_odr hidden void @_ZN3fmt3v116detail13ignore_unusedIJNS0_17basic_string_viewIcEEEEEvDpRKT_(ptr noundef nonnull align 8 dereferenceable(16) %0) #0 comdat {
  %2 = alloca ptr, align 8
  store ptr %0, ptr %2, align 8, !tbaa !127
  ret void
}

; Function Attrs: mustprogress uwtable
define internal { ptr, i64 } @"_ZZZN3fmt3v114file4dup2EiENK3$_0clEvENK18FMT_COMPILE_STRINGcvNS0_17basic_string_viewIcEEEv"(ptr noundef nonnull align 1 dereferenceable(1) %0) #5 align 2 {
  %2 = alloca %"class.fmt::v11::basic_string_view", align 8
  %3 = alloca ptr, align 8
  store ptr %0, ptr %3, align 8, !tbaa !69
  %4 = call { ptr, i64 } @_ZN3fmt3v116detail22compile_string_to_viewIcLm42EEENS0_17basic_string_viewIT_EERAT0__KS4_(ptr noundef nonnull align 1 dereferenceable(42) @.str.52)
  %5 = getelementptr inbounds nuw { ptr, i64 }, ptr %2, i32 0, i32 0
  %6 = extractvalue { ptr, i64 } %4, 0
  store ptr %6, ptr %5, align 8
  %7 = getelementptr inbounds nuw { ptr, i64 }, ptr %2, i32 0, i32 1
  %8 = extractvalue { ptr, i64 } %4, 1
  store i64 %8, ptr %7, align 8
  %9 = load { ptr, i64 }, ptr %2, align 8
  ret { ptr, i64 } %9
}

; Function Attrs: alwaysinline mustprogress uwtable
define internal void @"_ZN3fmt3v117fstringIJRiS2_EEC2IZZNS0_4file4dup2EiENK3$_0clEvE18FMT_COMPILE_STRINGTnNSt9enable_ifIXaasr3std10is_base_ofINS0_6detail14compile_stringET_EE5valuesr3std7is_sameINSB_9char_typeEcEE5valueEiE4typeELi0EEERKSB_"(ptr noundef nonnull align 8 dereferenceable(16) %0, ptr noundef nonnull align 1 dereferenceable(1) %1) unnamed_addr #8 align 2 {
  %3 = alloca ptr, align 8
  %4 = alloca ptr, align 8
  %5 = alloca %struct.FMT_COMPILE_STRING.27, align 1
  %6 = alloca %"class.fmt::v11::basic_string_view", align 8
  %7 = alloca i32, align 4
  store ptr %0, ptr %3, align 8, !tbaa !67
  store ptr %1, ptr %4, align 8, !tbaa !69
  %8 = load ptr, ptr %3, align 8
  call void @llvm.lifetime.start.p0(i64 1, ptr %5) #27
  %9 = call { ptr, i64 } @"_ZZZN3fmt3v114file4dup2EiENK3$_0clEvENK18FMT_COMPILE_STRINGcvNS0_17basic_string_viewIcEEEv"(ptr noundef nonnull align 1 dereferenceable(1) %5)
  %10 = getelementptr inbounds nuw { ptr, i64 }, ptr %8, i32 0, i32 0
  %11 = extractvalue { ptr, i64 } %9, 0
  store ptr %11, ptr %10, align 8
  %12 = getelementptr inbounds nuw { ptr, i64 }, ptr %8, i32 0, i32 1
  %13 = extractvalue { ptr, i64 } %9, 1
  store i64 %13, ptr %12, align 8
  call void @llvm.lifetime.end.p0(i64 1, ptr %5) #27
  call void @llvm.lifetime.start.p0(i64 16, ptr %6) #27
  call void @llvm.memcpy.p0.p0.i64(ptr align 8 %6, ptr align 8 @__const.fstring.sv.67, i64 16, i1 false)
  call void @llvm.lifetime.start.p0(i64 4, ptr %7) #27
  store i32 0, ptr %7, align 4, !tbaa !12
  call void @_ZN3fmt3v116detail13ignore_unusedIJiEEEvDpRKT_(ptr noundef nonnull align 4 dereferenceable(4) %7)
  call void @llvm.lifetime.end.p0(i64 4, ptr %7) #27
  call void @llvm.lifetime.end.p0(i64 16, ptr %6) #27
  ret void
}

; Function Attrs: inlinehint mustprogress uwtable
define internal void @"_ZZN3fmt3v114file4dup2EiENK3$_0clEv"(ptr noundef nonnull align 1 dereferenceable(1) %0) #7 align 2 {
  %2 = alloca ptr, align 8
  %3 = alloca %"class.fmt::v11::basic_string_view", align 8
  %4 = alloca %struct.FMT_COMPILE_STRING.27, align 1
  store ptr %0, ptr %2, align 8, !tbaa !27
  call void @llvm.lifetime.start.p0(i64 16, ptr %3) #27
  call void @llvm.lifetime.start.p0(i64 1, ptr %4) #27
  %5 = call { ptr, i64 } @"_ZZZN3fmt3v114file4dup2EiENK3$_0clEvENK18FMT_COMPILE_STRINGcvNS0_17basic_string_viewIcEEEv"(ptr noundef nonnull align 1 dereferenceable(1) %4)
  %6 = getelementptr inbounds nuw { ptr, i64 }, ptr %3, i32 0, i32 0
  %7 = extractvalue { ptr, i64 } %5, 0
  store ptr %7, ptr %6, align 8
  %8 = getelementptr inbounds nuw { ptr, i64 }, ptr %3, i32 0, i32 1
  %9 = extractvalue { ptr, i64 } %5, 1
  store i64 %9, ptr %8, align 8
  call void @_ZN3fmt3v116detail13ignore_unusedIJNS0_17basic_string_viewIcEEEEEvDpRKT_(ptr noundef nonnull align 8 dereferenceable(16) %3)
  call void @llvm.lifetime.end.p0(i64 1, ptr %4) #27
  call void @llvm.lifetime.end.p0(i64 16, ptr %3) #27
  ret void
}

; Function Attrs: mustprogress uwtable
define hidden void @_ZN3fmt3v114file4dup2Ei(ptr noundef nonnull align 4 dereferenceable(4) %0, i32 noundef %1) #5 align 2 personality ptr @__gxx_personality_v0 {
  %3 = alloca ptr, align 8
  %4 = alloca i32, align 4
  %5 = alloca i32, align 4
  %6 = alloca %"struct.fmt::v11::fstring.26", align 8
  %7 = alloca %struct.FMT_COMPILE_STRING.27, align 1
  %8 = alloca %class.anon.28, align 1
  %9 = alloca ptr, align 8
  %10 = alloca i32, align 4
  %11 = alloca i1, align 1
  store ptr %0, ptr %3, align 8, !tbaa !38
  store i32 %1, ptr %4, align 4, !tbaa !12
  %12 = load ptr, ptr %3, align 8
  call void @llvm.lifetime.start.p0(i64 4, ptr %5) #27
  store i32 0, ptr %5, align 4, !tbaa !12
  br label %13

13:                                               ; preds = %25, %2
  %14 = getelementptr inbounds nuw %"class.fmt::v11::file", ptr %12, i32 0, i32 0
  %15 = load i32, ptr %14, align 4, !tbaa !40
  %16 = load i32, ptr %4, align 4, !tbaa !12
  %17 = call i32 @dup2(i32 noundef %15, i32 noundef %16) #27
  store i32 %17, ptr %5, align 4, !tbaa !12
  br label %18

18:                                               ; preds = %13
  %19 = load i32, ptr %5, align 4, !tbaa !12
  %20 = icmp eq i32 %19, -1
  br i1 %20, label %21, label %25

21:                                               ; preds = %18
  %22 = call ptr @__errno_location() #26
  %23 = load i32, ptr %22, align 4, !tbaa !12
  %24 = icmp eq i32 %23, 4
  br label %25

25:                                               ; preds = %21, %18
  %26 = phi i1 [ false, %18 ], [ %24, %21 ]
  br i1 %26, label %13, label %27, !llvm.loop !66

27:                                               ; preds = %25
  %28 = load i32, ptr %5, align 4, !tbaa !12
  %29 = icmp eq i32 %28, -1
  br i1 %29, label %30, label %49

30:                                               ; preds = %27
  store i1 true, ptr %11, align 1
  %31 = call ptr @__cxa_allocate_exception(i64 32) #27
  %32 = call ptr @__errno_location() #26
  %33 = load i32, ptr %32, align 4, !tbaa !12
  call void @llvm.lifetime.start.p0(i64 1, ptr %7) #27
  call void @llvm.lifetime.start.p0(i64 1, ptr %8) #27
  invoke void @"_ZZN3fmt3v114file4dup2EiENK3$_0clEv"(ptr noundef nonnull align 1 dereferenceable(1) %8)
          to label %34 unwind label %42

34:                                               ; preds = %30
  invoke void @"_ZN3fmt3v117fstringIJRiS2_EEC2IZZNS0_4file4dup2EiENK3$_0clEvE18FMT_COMPILE_STRINGTnNSt9enable_ifIXaasr3std10is_base_ofINS0_6detail14compile_stringET_EE5valuesr3std7is_sameINSB_9char_typeEcEE5valueEiE4typeELi0EEERKSB_"(ptr noundef nonnull align 8 dereferenceable(16) %6, ptr noundef nonnull align 1 dereferenceable(1) %7)
          to label %35 unwind label %42

35:                                               ; preds = %34
  %36 = getelementptr inbounds nuw %"class.fmt::v11::file", ptr %12, i32 0, i32 0
  %37 = getelementptr inbounds nuw { ptr, i64 }, ptr %6, i32 0, i32 0
  %38 = load ptr, ptr %37, align 8
  %39 = getelementptr inbounds nuw { ptr, i64 }, ptr %6, i32 0, i32 1
  %40 = load i64, ptr %39, align 8
  invoke void @_ZN3fmt3v1112system_errorIJRiS2_EEESt12system_erroriNS0_7fstringIJDpT_EE1tEDpOS5_(ptr dead_on_unwind writable sret(%"class.std::system_error") align 8 %31, i32 noundef %33, ptr %38, i64 %40, ptr noundef nonnull align 4 dereferenceable(4) %36, ptr noundef nonnull align 4 dereferenceable(4) %4)
          to label %41 unwind label %42

41:                                               ; preds = %35
  store i1 false, ptr %11, align 1
  invoke void @__cxa_throw(ptr %31, ptr @_ZTISt12system_error, ptr @_ZNSt12system_errorD1Ev) #29
          to label %55 unwind label %42

42:                                               ; preds = %41, %35, %34, %30
  %43 = landingpad { ptr, i32 }
          cleanup
  %44 = extractvalue { ptr, i32 } %43, 0
  store ptr %44, ptr %9, align 8
  %45 = extractvalue { ptr, i32 } %43, 1
  store i32 %45, ptr %10, align 4
  call void @llvm.lifetime.end.p0(i64 1, ptr %8) #27
  call void @llvm.lifetime.end.p0(i64 1, ptr %7) #27
  %46 = load i1, ptr %11, align 1
  br i1 %46, label %47, label %48

47:                                               ; preds = %42
  call void @__cxa_free_exception(ptr %31) #27
  br label %48

48:                                               ; preds = %47, %42
  call void @llvm.lifetime.end.p0(i64 4, ptr %5) #27
  br label %50

49:                                               ; preds = %27
  call void @llvm.lifetime.end.p0(i64 4, ptr %5) #27
  ret void

50:                                               ; preds = %48
  %51 = load ptr, ptr %9, align 8
  %52 = load i32, ptr %10, align 4
  %53 = insertvalue { ptr, i32 } poison, ptr %51, 0
  %54 = insertvalue { ptr, i32 } %53, i32 %52, 1
  resume { ptr, i32 } %54

55:                                               ; preds = %41
  unreachable
}