; Function Attrs: mustprogress uwtable
define hidden void @_ZN3fmt3v114file4dup2Ei(ptr noundef nonnull align 4 dereferenceable(4) %0, i32 noundef %1) local_unnamed_addr #5 align 2 personality ptr @__gxx_personality_v0 {
  %3 = alloca i32, align 4
  store i32 %1, ptr %3, align 4, !tbaa !10
  br label %4

4:                                                ; preds = %8, %2
  %5 = load i32, ptr %0, align 4, !tbaa !34
  %6 = tail call i32 @dup2(i32 noundef %5, i32 noundef %1) #32
  %7 = icmp eq i32 %6, -1
  br i1 %7, label %8, label %.critedge5

8:                                                ; preds = %4
  %9 = tail call ptr @__errno_location() #31
  %10 = load i32, ptr %9, align 4, !tbaa !10
  %11 = icmp eq i32 %10, 4
  br i1 %11, label %4, label %12, !llvm.loop !45

12:                                               ; preds = %8
  %13 = tail call ptr @__cxa_allocate_exception(i64 32) #32
  %14 = load i32, ptr %9, align 4, !tbaa !10
  invoke void @_ZN3fmt3v1112system_errorIJRiS2_EEESt12system_erroriNS0_7fstringIJDpT_EE1tEDpOS5_(ptr dead_on_unwind writable sret(%"class.std::system_error") align 8 %13, i32 noundef %14, ptr nonnull @.str.52, i64 41, ptr noundef nonnull align 4 dereferenceable(4) %0, ptr noundef nonnull align 4 dereferenceable(4) %3)
          to label %15 unwind label %16

15:                                               ; preds = %12
  call void @__cxa_throw(ptr %13, ptr nonnull @_ZTISt12system_error, ptr nonnull @_ZNSt12system_errorD1Ev) #35
  unreachable

16:                                               ; preds = %12
  %17 = landingpad { ptr, i32 }
          cleanup
  call void @__cxa_free_exception(ptr %13) #32
  resume { ptr, i32 } %17

.critedge5:                                       ; preds = %4
  ret void
}